target datalayout = "e-m:e-p270:32:32-p271:32:32-p272:64:64-i64:64-i128:128-f80:128-n8:16:32:64-S128"
target triple = "x86_64-pc-linux-gnu"

; Function Attrs: nounwind uwtable
define internal void @CollectColorBlueTransforms_SSE41(ptr noundef %0, i32 noundef %1, i32 noundef %2, i32 noundef %3, i32 noundef %4, i32 noundef %5, ptr noundef %6) #1 {
  %8 = alloca <2 x i64>, align 16
  %9 = alloca i32, align 4
  %10 = alloca <2 x i64>, align 16
  %11 = alloca i32, align 4
  %12 = alloca <2 x i64>, align 16
  %13 = alloca <2 x i64>, align 16
  %14 = alloca <2 x i64>, align 16
  %15 = alloca <2 x i64>, align 16
  %16 = alloca <2 x i64>, align 16
  %17 = alloca <2 x i64>, align 16
  %18 = alloca <2 x i64>, align 16
  %19 = alloca <2 x i64>, align 16
  %20 = alloca <2 x i64>, align 16
  %21 = alloca <2 x i64>, align 16
  %22 = alloca <2 x i64>, align 16
  %23 = alloca <2 x i64>, align 16
  %24 = alloca i8, align 1
  %25 = alloca i8, align 1
  %26 = alloca i8, align 1
  %27 = alloca i8, align 1
  %28 = alloca i8, align 1
  %29 = alloca i8, align 1
  %30 = alloca i8, align 1
  %31 = alloca i8, align 1
  %32 = alloca i8, align 1
  %33 = alloca i8, align 1
  %34 = alloca i8, align 1
  %35 = alloca i8, align 1
  %36 = alloca i8, align 1
  %37 = alloca i8, align 1
  %38 = alloca i8, align 1
  %39 = alloca i8, align 1
  %40 = alloca <16 x i8>, align 16
  %41 = alloca i8, align 1
  %42 = alloca i8, align 1
  %43 = alloca i8, align 1
  %44 = alloca i8, align 1
  %45 = alloca i8, align 1
  %46 = alloca i8, align 1
  %47 = alloca i8, align 1
  %48 = alloca i8, align 1
  %49 = alloca i8, align 1
  %50 = alloca i8, align 1
  %51 = alloca i8, align 1
  %52 = alloca i8, align 1
  %53 = alloca i8, align 1
  %54 = alloca i8, align 1
  %55 = alloca i8, align 1
  %56 = alloca i8, align 1
  %57 = alloca i32, align 4
  %58 = alloca i32, align 4
  %59 = alloca i32, align 4
  %60 = alloca i32, align 4
  %61 = alloca <4 x i32>, align 16
  %62 = alloca i32, align 4
  %63 = alloca <2 x i64>, align 16
  %64 = alloca <2 x i64>, align 16
  %65 = alloca <2 x i64>, align 16
  %66 = alloca <2 x i64>, align 16
  %67 = alloca ptr, align 8
  %68 = alloca ptr, align 8
  %69 = alloca ptr, align 8
  %70 = alloca i32, align 4
  %71 = alloca i32, align 4
  %72 = alloca i32, align 4
  %73 = alloca i32, align 4
  %74 = alloca i32, align 4
  %75 = alloca ptr, align 8
  %76 = alloca <2 x i64>, align 16
  %77 = alloca <2 x i64>, align 16
  %78 = alloca i32, align 4
  %79 = alloca ptr, align 8
  %80 = alloca <2 x i64>, align 16
  %81 = alloca <2 x i64>, align 16
  %82 = alloca <2 x i64>, align 16
  %83 = alloca <2 x i64>, align 16
  %84 = alloca <2 x i64>, align 16
  %85 = alloca i32, align 4
  %86 = alloca <2 x i64>, align 16
  %87 = alloca <2 x i64>, align 16
  %88 = alloca <2 x i64>, align 16
  %89 = alloca <2 x i64>, align 16
  %90 = alloca i32, align 4
  store ptr %0, ptr %69, align 8
  store i32 %1, ptr %70, align 4
  store i32 %2, ptr %71, align 4
  store i32 %3, ptr %72, align 4
  store i32 %4, ptr %73, align 4
  store i32 %5, ptr %74, align 4
  store ptr %6, ptr %75, align 8
  %91 = load i32, ptr %74, align 4
  %92 = trunc i32 %91 to i16
  %93 = zext i16 %92 to i32
  %94 = shl i32 %93, 8
  %95 = trunc i32 %94 to i16
  %96 = sext i16 %95 to i32
  %97 = ashr i32 %96, 5
  %98 = add nsw i32 %97, 256
  %99 = shl i32 %98, 16
  %100 = load i32, ptr %73, align 4
  %101 = trunc i32 %100 to i16
  %102 = zext i16 %101 to i32
  %103 = shl i32 %102, 8
  %104 = trunc i32 %103 to i16
  %105 = sext i16 %104 to i32
  %106 = ashr i32 %105, 5
  %107 = and i32 %106, 65535
  %108 = or i32 %99, %107
  store i32 %108, ptr %62, align 4
  %109 = load i32, ptr %62, align 4
  %110 = load i32, ptr %62, align 4
  %111 = load i32, ptr %62, align 4
  %112 = load i32, ptr %62, align 4
  store i32 %109, ptr %57, align 4
  store i32 %110, ptr %58, align 4
  store i32 %111, ptr %59, align 4
  store i32 %112, ptr %60, align 4
  %113 = load i32, ptr %60, align 4
  %114 = insertelement <4 x i32> poison, i32 %113, i32 0
  %115 = load i32, ptr %59, align 4
  %116 = insertelement <4 x i32> %114, i32 %115, i32 1
  %117 = load i32, ptr %58, align 4
  %118 = insertelement <4 x i32> %116, i32 %117, i32 2
  %119 = load i32, ptr %57, align 4
  %120 = insertelement <4 x i32> %118, i32 %119, i32 3
  store <4 x i32> %120, ptr %61, align 16
  %121 = load <4 x i32>, ptr %61, align 16
  %122 = bitcast <4 x i32> %121 to <2 x i64>
  store <2 x i64> %122, ptr %76, align 16
  store i8 -1, ptr %41, align 1
  store i8 1, ptr %42, align 1
  store i8 -1, ptr %43, align 1
  store i8 2, ptr %44, align 1
  store i8 -1, ptr %45, align 1
  store i8 5, ptr %46, align 1
  store i8 -1, ptr %47, align 1
  store i8 6, ptr %48, align 1
  store i8 -1, ptr %49, align 1
  store i8 9, ptr %50, align 1
  store i8 -1, ptr %51, align 1
  store i8 10, ptr %52, align 1
  store i8 -1, ptr %53, align 1
  store i8 13, ptr %54, align 1
  store i8 -1, ptr %55, align 1
  store i8 14, ptr %56, align 1
  %123 = load i8, ptr %56, align 1
  %124 = load i8, ptr %55, align 1
  %125 = load i8, ptr %54, align 1
  %126 = load i8, ptr %53, align 1
  %127 = load i8, ptr %52, align 1
  %128 = load i8, ptr %51, align 1
  %129 = load i8, ptr %50, align 1
  %130 = load i8, ptr %49, align 1
  %131 = load i8, ptr %48, align 1
  %132 = load i8, ptr %47, align 1
  %133 = load i8, ptr %46, align 1
  %134 = load i8, ptr %45, align 1
  %135 = load i8, ptr %44, align 1
  %136 = load i8, ptr %43, align 1
  %137 = load i8, ptr %42, align 1
  %138 = load i8, ptr %41, align 1
  store i8 %123, ptr %24, align 1
  store i8 %124, ptr %25, align 1
  store i8 %125, ptr %26, align 1
  store i8 %126, ptr %27, align 1
  store i8 %127, ptr %28, align 1
  store i8 %128, ptr %29, align 1
  store i8 %129, ptr %30, align 1
  store i8 %130, ptr %31, align 1
  store i8 %131, ptr %32, align 1
  store i8 %132, ptr %33, align 1
  store i8 %133, ptr %34, align 1
  store i8 %134, ptr %35, align 1
  store i8 %135, ptr %36, align 1
  store i8 %136, ptr %37, align 1
  store i8 %137, ptr %38, align 1
  store i8 %138, ptr %39, align 1
  %139 = load i8, ptr %39, align 1
  %140 = insertelement <16 x i8> poison, i8 %139, i32 0
  %141 = load i8, ptr %38, align 1
  %142 = insertelement <16 x i8> %140, i8 %141, i32 1
  %143 = load i8, ptr %37, align 1
  %144 = insertelement <16 x i8> %142, i8 %143, i32 2
  %145 = load i8, ptr %36, align 1
  %146 = insertelement <16 x i8> %144, i8 %145, i32 3
  %147 = load i8, ptr %35, align 1
  %148 = insertelement <16 x i8> %146, i8 %147, i32 4
  %149 = load i8, ptr %34, align 1
  %150 = insertelement <16 x i8> %148, i8 %149, i32 5
  %151 = load i8, ptr %33, align 1
  %152 = insertelement <16 x i8> %150, i8 %151, i32 6
  %153 = load i8, ptr %32, align 1
  %154 = insertelement <16 x i8> %152, i8 %153, i32 7
  %155 = load i8, ptr %31, align 1
  %156 = insertelement <16 x i8> %154, i8 %155, i32 8
  %157 = load i8, ptr %30, align 1
  %158 = insertelement <16 x i8> %156, i8 %157, i32 9
  %159 = load i8, ptr %29, align 1
  %160 = insertelement <16 x i8> %158, i8 %159, i32 10
  %161 = load i8, ptr %28, align 1
  %162 = insertelement <16 x i8> %160, i8 %161, i32 11
  %163 = load i8, ptr %27, align 1
  %164 = insertelement <16 x i8> %162, i8 %163, i32 12
  %165 = load i8, ptr %26, align 1
  %166 = insertelement <16 x i8> %164, i8 %165, i32 13
  %167 = load i8, ptr %25, align 1
  %168 = insertelement <16 x i8> %166, i8 %167, i32 14
  %169 = load i8, ptr %24, align 1
  %170 = insertelement <16 x i8> %168, i8 %169, i32 15
  store <16 x i8> %170, ptr %40, align 16
  %171 = load <16 x i8>, ptr %40, align 16
  %172 = bitcast <16 x i8> %171 to <2 x i64>
  store <2 x i64> %172, ptr %77, align 16
  %173 = load i32, ptr %71, align 4
  %174 = icmp sge i32 %173, 4
  br i1 %174, label %175, label %356

175:                                              ; preds = %7
  store i32 0, ptr %78, align 4
  br label %176

176:                                              ; preds = %352, %175
  %177 = load i32, ptr %78, align 4
  %178 = load i32, ptr %72, align 4
  %179 = icmp slt i32 %177, %178
  br i1 %179, label %180, label %355

180:                                              ; preds = %176
  %181 = load ptr, ptr %69, align 8
  %182 = load i32, ptr %78, align 4
  %183 = load i32, ptr %70, align 4
  %184 = mul nsw i32 %182, %183
  %185 = sext i32 %184 to i64
  %186 = getelementptr inbounds i32, ptr %181, i64 %185
  store ptr %186, ptr %79, align 8
  %187 = load ptr, ptr %79, align 8
  store ptr %187, ptr %67, align 8
  %188 = load ptr, ptr %67, align 8
  %189 = load <2 x i64>, ptr %188, align 1
  store <2 x i64> %189, ptr %80, align 16
  %190 = load <2 x i64>, ptr %80, align 16
  %191 = load <2 x i64>, ptr %77, align 16
  store <2 x i64> %190, ptr %63, align 16
  store <2 x i64> %191, ptr %64, align 16
  %192 = load <2 x i64>, ptr %63, align 16
  %193 = bitcast <2 x i64> %192 to <16 x i8>
  %194 = load <2 x i64>, ptr %64, align 16
  %195 = bitcast <2 x i64> %194 to <16 x i8>
  %196 = call <16 x i8> @llvm.x86.ssse3.pshuf.b.128(<16 x i8> %193, <16 x i8> %195)
  %197 = bitcast <16 x i8> %196 to <2 x i64>
  store <2 x i64> %197, ptr %81, align 16
  %198 = load <2 x i64>, ptr %81, align 16
  %199 = load <2 x i64>, ptr %76, align 16
  store <2 x i64> %198, ptr %20, align 16
  store <2 x i64> %199, ptr %21, align 16
  %200 = load <2 x i64>, ptr %20, align 16
  %201 = bitcast <2 x i64> %200 to <8 x i16>
  %202 = load <2 x i64>, ptr %21, align 16
  %203 = bitcast <2 x i64> %202 to <8 x i16>
  %204 = call <8 x i16> @llvm.x86.sse2.pmulh.w(<8 x i16> %201, <8 x i16> %203)
  %205 = bitcast <8 x i16> %204 to <2 x i64>
  store <2 x i64> %205, ptr %82, align 16
  %206 = load <2 x i64>, ptr %80, align 16
  %207 = load <2 x i64>, ptr %82, align 16
  store <2 x i64> %206, ptr %16, align 16
  store <2 x i64> %207, ptr %17, align 16
  %208 = load <2 x i64>, ptr %16, align 16
  %209 = bitcast <2 x i64> %208 to <8 x i16>
  %210 = load <2 x i64>, ptr %17, align 16
  %211 = bitcast <2 x i64> %210 to <8 x i16>
  %212 = sub <8 x i16> %209, %211
  %213 = bitcast <8 x i16> %212 to <2 x i64>
  store <2 x i64> %213, ptr %83, align 16
  %214 = load <2 x i64>, ptr %83, align 16
  store <2 x i64> %214, ptr %8, align 16
  store i32 16, ptr %9, align 4
  %215 = load <2 x i64>, ptr %8, align 16
  %216 = bitcast <2 x i64> %215 to <4 x i32>
  %217 = load i32, ptr %9, align 4
  %218 = call <4 x i32> @llvm.x86.sse2.psrli.d(<4 x i32> %216, i32 %217)
  %219 = bitcast <4 x i32> %218 to <2 x i64>
  %220 = load <2 x i64>, ptr %83, align 16
  store <2 x i64> %219, ptr %12, align 16
  store <2 x i64> %220, ptr %13, align 16
  %221 = load <2 x i64>, ptr %12, align 16
  %222 = bitcast <2 x i64> %221 to <8 x i16>
  %223 = load <2 x i64>, ptr %13, align 16
  %224 = bitcast <2 x i64> %223 to <8 x i16>
  %225 = add <8 x i16> %222, %224
  %226 = bitcast <8 x i16> %225 to <2 x i64>
  store <2 x i64> %226, ptr %84, align 16
  store i32 4, ptr %85, align 4
  br label %227

227:                                              ; preds = %312, %180
  %228 = load i32, ptr %85, align 4
  %229 = add nsw i32 %228, 4
  %230 = load i32, ptr %71, align 4
  %231 = icmp sle i32 %229, %230
  br i1 %231, label %232, label %315

232:                                              ; preds = %227
  %233 = load ptr, ptr %79, align 8
  %234 = load i32, ptr %85, align 4
  %235 = sext i32 %234 to i64
  %236 = getelementptr inbounds i32, ptr %233, i64 %235
  store ptr %236, ptr %68, align 8
  %237 = load ptr, ptr %68, align 8
  %238 = load <2 x i64>, ptr %237, align 1
  store <2 x i64> %238, ptr %86, align 16
  %239 = load ptr, ptr %75, align 8
  %240 = load <2 x i64>, ptr %84, align 16
  %241 = bitcast <2 x i64> %240 to <16 x i8>
  %242 = extractelement <16 x i8> %241, i64 0
  %243 = zext i8 %242 to i32
  %244 = sext i32 %243 to i64
  %245 = getelementptr inbounds i32, ptr %239, i64 %244
  %246 = load i32, ptr %245, align 4
  %247 = add i32 %246, 1
  store i32 %247, ptr %245, align 4
  %248 = load <2 x i64>, ptr %86, align 16
  %249 = load <2 x i64>, ptr %77, align 16
  store <2 x i64> %248, ptr %65, align 16
  store <2 x i64> %249, ptr %66, align 16
  %250 = load <2 x i64>, ptr %65, align 16
  %251 = bitcast <2 x i64> %250 to <16 x i8>
  %252 = load <2 x i64>, ptr %66, align 16
  %253 = bitcast <2 x i64> %252 to <16 x i8>
  %254 = call <16 x i8> @llvm.x86.ssse3.pshuf.b.128(<16 x i8> %251, <16 x i8> %253)
  %255 = bitcast <16 x i8> %254 to <2 x i64>
  store <2 x i64> %255, ptr %87, align 16
  %256 = load ptr, ptr %75, align 8
  %257 = load <2 x i64>, ptr %84, align 16
  %258 = bitcast <2 x i64> %257 to <16 x i8>
  %259 = extractelement <16 x i8> %258, i64 4
  %260 = zext i8 %259 to i32
  %261 = sext i32 %260 to i64
  %262 = getelementptr inbounds i32, ptr %256, i64 %261
  %263 = load i32, ptr %262, align 4
  %264 = add i32 %263, 1
  store i32 %264, ptr %262, align 4
  %265 = load <2 x i64>, ptr %87, align 16
  %266 = load <2 x i64>, ptr %76, align 16
  store <2 x i64> %265, ptr %22, align 16
  store <2 x i64> %266, ptr %23, align 16
  %267 = load <2 x i64>, ptr %22, align 16
  %268 = bitcast <2 x i64> %267 to <8 x i16>
  %269 = load <2 x i64>, ptr %23, align 16
  %270 = bitcast <2 x i64> %269 to <8 x i16>
  %271 = call <8 x i16> @llvm.x86.sse2.pmulh.w(<8 x i16> %268, <8 x i16> %270)
  %272 = bitcast <8 x i16> %271 to <2 x i64>
  store <2 x i64> %272, ptr %88, align 16
  %273 = load ptr, ptr %75, align 8
  %274 = load <2 x i64>, ptr %84, align 16
  %275 = bitcast <2 x i64> %274 to <16 x i8>
  %276 = extractelement <16 x i8> %275, i64 8
  %277 = zext i8 %276 to i32
  %278 = sext i32 %277 to i64
  %279 = getelementptr inbounds i32, ptr %273, i64 %278
  %280 = load i32, ptr %279, align 4
  %281 = add i32 %280, 1
  store i32 %281, ptr %279, align 4
  %282 = load <2 x i64>, ptr %86, align 16
  %283 = load <2 x i64>, ptr %88, align 16
  store <2 x i64> %282, ptr %18, align 16
  store <2 x i64> %283, ptr %19, align 16
  %284 = load <2 x i64>, ptr %18, align 16
  %285 = bitcast <2 x i64> %284 to <8 x i16>
  %286 = load <2 x i64>, ptr %19, align 16
  %287 = bitcast <2 x i64> %286 to <8 x i16>
  %288 = sub <8 x i16> %285, %287
  %289 = bitcast <8 x i16> %288 to <2 x i64>
  store <2 x i64> %289, ptr %89, align 16
  %290 = load ptr, ptr %75, align 8
  %291 = load <2 x i64>, ptr %84, align 16
  %292 = bitcast <2 x i64> %291 to <16 x i8>
  %293 = extractelement <16 x i8> %292, i64 12
  %294 = zext i8 %293 to i32
  %295 = sext i32 %294 to i64
  %296 = getelementptr inbounds i32, ptr %290, i64 %295
  %297 = load i32, ptr %296, align 4
  %298 = add i32 %297, 1
  store i32 %298, ptr %296, align 4
  %299 = load <2 x i64>, ptr %89, align 16
  store <2 x i64> %299, ptr %10, align 16
  store i32 16, ptr %11, align 4
  %300 = load <2 x i64>, ptr %10, align 16
  %301 = bitcast <2 x i64> %300 to <4 x i32>
  %302 = load i32, ptr %11, align 4
  %303 = call <4 x i32> @llvm.x86.sse2.psrli.d(<4 x i32> %301, i32 %302)
  %304 = bitcast <4 x i32> %303 to <2 x i64>
  %305 = load <2 x i64>, ptr %89, align 16
  store <2 x i64> %304, ptr %14, align 16
  store <2 x i64> %305, ptr %15, align 16
  %306 = load <2 x i64>, ptr %14, align 16
  %307 = bitcast <2 x i64> %306 to <8 x i16>
  %308 = load <2 x i64>, ptr %15, align 16
  %309 = bitcast <2 x i64> %308 to <8 x i16>
  %310 = add <8 x i16> %307, %309
  %311 = bitcast <8 x i16> %310 to <2 x i64>
  store <2 x i64> %311, ptr %84, align 16
  br label %312

312:                                              ; preds = %232
  %313 = load i32, ptr %85, align 4
  %314 = add nsw i32 %313, 4
  store i32 %314, ptr %85, align 4
  br label %227, !llvm.loop !8

315:                                              ; preds = %227
  %316 = load ptr, ptr %75, align 8
  %317 = load <2 x i64>, ptr %84, align 16
  %318 = bitcast <2 x i64> %317 to <16 x i8>
  %319 = extractelement <16 x i8> %318, i64 0
  %320 = zext i8 %319 to i32
  %321 = sext i32 %320 to i64
  %322 = getelementptr inbounds i32, ptr %316, i64 %321
  %323 = load i32, ptr %322, align 4
  %324 = add i32 %323, 1
  store i32 %324, ptr %322, align 4
  %325 = load ptr, ptr %75, align 8
  %326 = load <2 x i64>, ptr %84, align 16
  %327 = bitcast <2 x i64> %326 to <16 x i8>
  %328 = extractelement <16 x i8> %327, i64 4
  %329 = zext i8 %328 to i32
  %330 = sext i32 %329 to i64
  %331 = getelementptr inbounds i32, ptr %325, i64 %330
  %332 = load i32, ptr %331, align 4
  %333 = add i32 %332, 1
  store i32 %333, ptr %331, align 4
  %334 = load ptr, ptr %75, align 8
  %335 = load <2 x i64>, ptr %84, align 16
  %336 = bitcast <2 x i64> %335 to <16 x i8>
  %337 = extractelement <16 x i8> %336, i64 8
  %338 = zext i8 %337 to i32
  %339 = sext i32 %338 to i64
  %340 = getelementptr inbounds i32, ptr %334, i64 %339
  %341 = load i32, ptr %340, align 4
  %342 = add i32 %341, 1
  store i32 %342, ptr %340, align 4
  %343 = load ptr, ptr %75, align 8
  %344 = load <2 x i64>, ptr %84, align 16
  %345 = bitcast <2 x i64> %344 to <16 x i8>
  %346 = extractelement <16 x i8> %345, i64 12
  %347 = zext i8 %346 to i32
  %348 = sext i32 %347 to i64
  %349 = getelementptr inbounds i32, ptr %343, i64 %348
  %350 = load i32, ptr %349, align 4
  %351 = add i32 %350, 1
  store i32 %351, ptr %349, align 4
  br label %352

352:                                              ; preds = %315
  %353 = load i32, ptr %78, align 4
  %354 = add nsw i32 %353, 1
  store i32 %354, ptr %78, align 4
  br label %176, !llvm.loop !9

355:                                              ; preds = %176
  br label %356

356:                                              ; preds = %355, %7
  %357 = load i32, ptr %71, align 4
  %358 = and i32 %357, 3
  store i32 %358, ptr %90, align 4
  %359 = load i32, ptr %90, align 4
  %360 = icmp sgt i32 %359, 0
  br i1 %360, label %361, label %376

361:                                              ; preds = %356
  %362 = load ptr, ptr %69, align 8
  %363 = load i32, ptr %71, align 4
  %364 = sext i32 %363 to i64
  %365 = getelementptr inbounds i32, ptr %362, i64 %364
  %366 = load i32, ptr %90, align 4
  %367 = sext i32 %366 to i64
  %368 = sub i64 0, %367
  %369 = getelementptr inbounds i32, ptr %365, i64 %368
  %370 = load i32, ptr %70, align 4
  %371 = load i32, ptr %90, align 4
  %372 = load i32, ptr %72, align 4
  %373 = load i32, ptr %73, align 4
  %374 = load i32, ptr %74, align 4
  %375 = load ptr, ptr %75, align 8
  call void @VP8LCollectColorBlueTransforms_C(ptr noundef %369, i32 noundef %370, i32 noundef %371, i32 noundef %372, i32 noundef %373, i32 noundef %374, ptr noundef %375)
  br label %376

376:                                              ; preds = %361, %356
  ret void
}