; Function Attrs: nounwind uwtable
define internal void @CollectColorBlueTransforms_SSE41(ptr noundef %0, i32 noundef %1, i32 noundef %2, i32 noundef %3, i32 noundef %4, i32 noundef %5, ptr noundef %6) #2 {
  %8 = icmp sgt i32 %2, 3
  %9 = icmp sgt i32 %3, 0
  %or.cond = and i1 %8, %9
  br i1 %or.cond, label %.lr.ph132, label %.loopexit

.lr.ph132:                                        ; preds = %7
  %.tr = trunc i32 %5 to i16
  %10 = shl i16 %.tr, 8
  %11 = ashr exact i16 %10, 5
  %narrow = add nsw i16 %11, 256
  %12 = sext i16 %narrow to i32
  %13 = shl nsw i32 %12, 16
  %.tr126 = trunc i32 %4 to i16
  %14 = shl i16 %.tr126, 8
  %15 = ashr exact i16 %14, 5
  %16 = zext i16 %15 to i32
  %17 = or disjoint i32 %13, %16
  %18 = insertelement <4 x i32> poison, i32 %17, i64 0
  %19 = bitcast <4 x i32> %18 to <8 x i16>
  %20 = shufflevector <8 x i16> %19, <8 x i16> poison, <8 x i32> <i32 0, i32 1, i32 0, i32 1, i32 0, i32 1, i32 0, i32 1>
  %.not127128 = icmp ult i32 %2, 8
  br i1 %.not127128, label %.lr.ph132.split.us.preheader, label %.lr.ph.preheader

.lr.ph.preheader:                                 ; preds = %.lr.ph132
  %21 = zext nneg i32 %2 to i64
  %22 = sext i32 %1 to i64
  %wide.trip.count = zext nneg i32 %3 to i64
  br label %.lr.ph

.lr.ph132.split.us.preheader:                     ; preds = %.lr.ph132
  %23 = sext i32 %1 to i64
  %wide.trip.count145 = zext nneg i32 %3 to i64
  br label %.lr.ph132.split.us

.lr.ph132.split.us:                               ; preds = %.lr.ph132.split.us.preheader, %.lr.ph132.split.us
  %indvars.iv142 = phi i64 [ 0, %.lr.ph132.split.us.preheader ], [ %indvars.iv.next143, %.lr.ph132.split.us ]
  %24 = mul nsw i64 %indvars.iv142, %23
  %25 = getelementptr inbounds i32, ptr %0, i64 %24
  %26 = load <2 x i64>, ptr %25, align 1
  %27 = bitcast <2 x i64> %26 to <16 x i8>
  %28 = shufflevector <16 x i8> %27, <16 x i8> <i8 0, i8 poison, i8 poison, i8 poison, i8 poison, i8 poison, i8 poison, i8 poison, i8 poison, i8 poison, i8 poison, i8 poison, i8 poison, i8 poison, i8 poison, i8 poison>, <16 x i32> <i32 16, i32 1, i32 16, i32 2, i32 16, i32 5, i32 16, i32 6, i32 16, i32 9, i32 16, i32 10, i32 16, i32 13, i32 16, i32 14>
  %29 = bitcast <16 x i8> %28 to <8 x i16>
  %30 = tail call <8 x i16> @llvm.x86.sse2.pmulh.w(<8 x i16> %29, <8 x i16> %20)
  %31 = bitcast <2 x i64> %26 to <8 x i16>
  %32 = sub <8 x i16> %31, %30
  %33 = bitcast <8 x i16> %32 to <4 x i32>
  %34 = lshr <4 x i32> %33, <i32 16, i32 16, i32 16, i32 16>
  %35 = bitcast <4 x i32> %34 to <8 x i16>
  %36 = add <8 x i16> %32, %35
  %37 = bitcast <8 x i16> %36 to <16 x i8>
  %38 = extractelement <16 x i8> %37, i64 0
  %39 = zext i8 %38 to i64
  %40 = getelementptr inbounds i32, ptr %6, i64 %39
  %41 = load i32, ptr %40, align 4
  %42 = add i32 %41, 1
  store i32 %42, ptr %40, align 4
  %43 = extractelement <16 x i8> %37, i64 4
  %44 = zext i8 %43 to i64
  %45 = getelementptr inbounds i32, ptr %6, i64 %44
  %46 = load i32, ptr %45, align 4
  %47 = add i32 %46, 1
  store i32 %47, ptr %45, align 4
  %48 = extractelement <16 x i8> %37, i64 8
  %49 = zext i8 %48 to i64
  %50 = getelementptr inbounds i32, ptr %6, i64 %49
  %51 = load i32, ptr %50, align 4
  %52 = add i32 %51, 1
  store i32 %52, ptr %50, align 4
  %53 = extractelement <16 x i8> %37, i64 12
  %54 = zext i8 %53 to i64
  %55 = getelementptr inbounds i32, ptr %6, i64 %54
  %56 = load i32, ptr %55, align 4
  %57 = add i32 %56, 1
  store i32 %57, ptr %55, align 4
  %indvars.iv.next143 = add nuw nsw i64 %indvars.iv142, 1
  %exitcond146.not = icmp eq i64 %indvars.iv.next143, %wide.trip.count145
  br i1 %exitcond146.not, label %.loopexit, label %.lr.ph132.split.us, !llvm.loop !8

.lr.ph:                                           ; preds = %.lr.ph.preheader, %._crit_edge
  %indvars.iv139 = phi i64 [ 0, %.lr.ph.preheader ], [ %indvars.iv.next140, %._crit_edge ]
  %58 = mul nsw i64 %indvars.iv139, %22
  %59 = getelementptr inbounds i32, ptr %0, i64 %58
  %60 = load <2 x i64>, ptr %59, align 1
  %61 = bitcast <2 x i64> %60 to <16 x i8>
  %62 = shufflevector <16 x i8> %61, <16 x i8> <i8 0, i8 poison, i8 poison, i8 poison, i8 poison, i8 poison, i8 poison, i8 poison, i8 poison, i8 poison, i8 poison, i8 poison, i8 poison, i8 poison, i8 poison, i8 poison>, <16 x i32> <i32 16, i32 1, i32 16, i32 2, i32 16, i32 5, i32 16, i32 6, i32 16, i32 9, i32 16, i32 10, i32 16, i32 13, i32 16, i32 14>
  %63 = bitcast <16 x i8> %62 to <8 x i16>
  %64 = tail call <8 x i16> @llvm.x86.sse2.pmulh.w(<8 x i16> %63, <8 x i16> %20)
  %65 = bitcast <2 x i64> %60 to <8 x i16>
  %66 = sub <8 x i16> %65, %64
  %67 = bitcast <8 x i16> %66 to <4 x i32>
  %68 = lshr <4 x i32> %67, <i32 16, i32 16, i32 16, i32 16>
  %69 = bitcast <4 x i32> %68 to <8 x i16>
  %70 = add <8 x i16> %66, %69
  br label %71

71:                                               ; preds = %.lr.ph, %71
  %indvars.iv134 = phi i64 [ 4, %.lr.ph ], [ %indvars.iv.next135, %71 ]
  %indvars.iv = phi i64 [ 8, %.lr.ph ], [ %indvars.iv.next, %71 ]
  %.0121.in130 = phi <8 x i16> [ %70, %.lr.ph ], [ %104, %71 ]
  %72 = getelementptr inbounds i32, ptr %59, i64 %indvars.iv134
  %73 = load <2 x i64>, ptr %72, align 1
  %74 = bitcast <8 x i16> %.0121.in130 to <16 x i8>
  %75 = extractelement <16 x i8> %74, i64 0
  %76 = zext i8 %75 to i64
  %77 = getelementptr inbounds i32, ptr %6, i64 %76
  %78 = load i32, ptr %77, align 4
  %79 = add i32 %78, 1
  store i32 %79, ptr %77, align 4
  %80 = bitcast <2 x i64> %73 to <16 x i8>
  %81 = shufflevector <16 x i8> %80, <16 x i8> <i8 0, i8 poison, i8 poison, i8 poison, i8 poison, i8 poison, i8 poison, i8 poison, i8 poison, i8 poison, i8 poison, i8 poison, i8 poison, i8 poison, i8 poison, i8 poison>, <16 x i32> <i32 16, i32 1, i32 16, i32 2, i32 16, i32 5, i32 16, i32 6, i32 16, i32 9, i32 16, i32 10, i32 16, i32 13, i32 16, i32 14>
  %82 = extractelement <16 x i8> %74, i64 4
  %83 = zext i8 %82 to i64
  %84 = getelementptr inbounds i32, ptr %6, i64 %83
  %85 = load i32, ptr %84, align 4
  %86 = add i32 %85, 1
  store i32 %86, ptr %84, align 4
  %87 = bitcast <16 x i8> %81 to <8 x i16>
  %88 = tail call <8 x i16> @llvm.x86.sse2.pmulh.w(<8 x i16> %87, <8 x i16> %20)
  %89 = extractelement <16 x i8> %74, i64 8
  %90 = zext i8 %89 to i64
  %91 = getelementptr inbounds i32, ptr %6, i64 %90
  %92 = load i32, ptr %91, align 4
  %93 = add i32 %92, 1
  store i32 %93, ptr %91, align 4
  %94 = bitcast <2 x i64> %73 to <8 x i16>
  %95 = sub <8 x i16> %94, %88
  %96 = extractelement <16 x i8> %74, i64 12
  %97 = zext i8 %96 to i64
  %98 = getelementptr inbounds i32, ptr %6, i64 %97
  %99 = load i32, ptr %98, align 4
  %100 = add i32 %99, 1
  store i32 %100, ptr %98, align 4
  %101 = bitcast <8 x i16> %95 to <4 x i32>
  %102 = lshr <4 x i32> %101, <i32 16, i32 16, i32 16, i32 16>
  %103 = bitcast <4 x i32> %102 to <8 x i16>
  %104 = add <8 x i16> %95, %103
  %indvars.iv.next = add nuw nsw i64 %indvars.iv, 4
  %.not127 = icmp ugt i64 %indvars.iv.next, %21
  %indvars.iv.next135 = add nuw nsw i64 %indvars.iv134, 4
  br i1 %.not127, label %._crit_edge, label %71, !llvm.loop !9

._crit_edge:                                      ; preds = %71
  %105 = bitcast <8 x i16> %104 to <16 x i8>
  %106 = extractelement <16 x i8> %105, i64 0
  %107 = zext i8 %106 to i64
  %108 = getelementptr inbounds i32, ptr %6, i64 %107
  %109 = load i32, ptr %108, align 4
  %110 = add i32 %109, 1
  store i32 %110, ptr %108, align 4
  %111 = extractelement <16 x i8> %105, i64 4
  %112 = zext i8 %111 to i64
  %113 = getelementptr inbounds i32, ptr %6, i64 %112
  %114 = load i32, ptr %113, align 4
  %115 = add i32 %114, 1
  store i32 %115, ptr %113, align 4
  %116 = extractelement <16 x i8> %105, i64 8
  %117 = zext i8 %116 to i64
  %118 = getelementptr inbounds i32, ptr %6, i64 %117
  %119 = load i32, ptr %118, align 4
  %120 = add i32 %119, 1
  store i32 %120, ptr %118, align 4
  %121 = extractelement <16 x i8> %105, i64 12
  %122 = zext i8 %121 to i64
  %123 = getelementptr inbounds i32, ptr %6, i64 %122
  %124 = load i32, ptr %123, align 4
  %125 = add i32 %124, 1
  store i32 %125, ptr %123, align 4
  %indvars.iv.next140 = add nuw nsw i64 %indvars.iv139, 1
  %exitcond.not = icmp eq i64 %indvars.iv.next140, %wide.trip.count
  br i1 %exitcond.not, label %.loopexit, label %.lr.ph, !llvm.loop !8

.loopexit:                                        ; preds = %._crit_edge, %.lr.ph132.split.us, %7
  %126 = and i32 %2, 3
  %.not = icmp eq i32 %126, 0
  br i1 %.not, label %133, label %127

127:                                              ; preds = %.loopexit
  %128 = sext i32 %2 to i64
  %129 = getelementptr inbounds i32, ptr %0, i64 %128
  %130 = zext nneg i32 %126 to i64
  %131 = sub nsw i64 0, %130
  %132 = getelementptr inbounds i32, ptr %129, i64 %131
  tail call void @VP8LCollectColorBlueTransforms_C(ptr noundef nonnull %132, i32 noundef %1, i32 noundef %126, i32 noundef %3, i32 noundef %4, i32 noundef %5, ptr noundef %6) #5
  br label %133

133:                                              ; preds = %127, %.loopexit
  ret void
}